target datalayout = "e-m:e-p270:32:32-p271:32:32-p272:64:64-i64:64-i128:128-f80:128-n8:16:32:64-S128"
target triple = "x86_64-pc-linux-gnu"

%struct.darktable_t = type { %struct.dt_codepath_t, i32, i32, ptr, ptr, ptr, ptr, ptr, ptr, ptr, ptr, ptr, ptr, ptr, ptr, ptr, ptr, ptr, ptr, ptr, ptr, ptr, ptr, ptr, ptr, ptr, ptr, ptr, ptr, ptr, [64 x %struct.dt_pthread_mutex_t], %struct.dt_pthread_mutex_t, %struct.dt_pthread_mutex_t, %struct.dt_pthread_mutex_t, %struct.dt_pthread_mutex_t, %struct.dt_pthread_mutex_t, ptr, ptr, ptr, ptr, ptr, ptr, ptr, ptr, ptr, ptr, ptr, ptr, ptr, %struct.dt_lua_state_t, ptr, double, ptr, i32, [47 x i32], i32, i32, ptr, ptr, %struct.dt_sys_resources_t, %struct.dt_backthumb_t, %struct.dt_gimp_t }
%struct.dt_codepath_t = type { i8, [3 x i8] }
%struct.dt_pthread_mutex_t = type { %union.pthread_mutex_t }
%union.pthread_mutex_t = type { %struct.__pthread_mutex_s }
%struct.__pthread_mutex_s = type { i32, i32, i32, i32, i32, i16, i16, %struct.__pthread_internal_list }
%struct.__pthread_internal_list = type { ptr, ptr }
%struct.dt_lua_state_t = type { i32 }
%struct.dt_sys_resources_t = type { i64, i64, ptr, ptr, i32 }
%struct.dt_backthumb_t = type { double, double, i32, i32, i32, i32 }
%struct.dt_gimp_t = type { i32, ptr, ptr, i32, i32 }
%struct.dt_gui_gtk_t = type { ptr, %struct.dt_gui_widgets_t, %struct.dt_gui_scrollbars_t, i32, ptr, i32, [39 x %struct._GdkRGBA], i32, i32, i32, i32, i32, double, double, double, double, ptr, double, double, double, double, i32, i32, [4096 x i8], i32, i32, i32, %struct.dt_pthread_mutex_t }
%struct.dt_gui_widgets_t = type { ptr, ptr, ptr, ptr, i32, i32, i32 }
%struct.dt_gui_scrollbars_t = type { ptr, ptr, i32 }
%struct._GdkRGBA = type { double, double, double, double }

@darktable = external global %struct.darktable_t, align 8
@.str.2 = private unnamed_addr constant [22 x i8] c"expand grouped images\00", align 1
@.str.3 = private unnamed_addr constant [24 x i8] c"collapse grouped images\00", align 1
@.str.44 = private unnamed_addr constant [17 x i8] c"ui_last/grouping\00", align 1

; Function Attrs: nounwind uwtable
define internal void @_lib_filter_grouping_button_clicked(ptr noundef %0, ptr noundef %1) #0 {
  %3 = alloca ptr, align 8
  %4 = alloca ptr, align 8
  store ptr %0, ptr %3, align 8, !tbaa !68
  store ptr %1, ptr %4, align 8, !tbaa !92
  %5 = load ptr, ptr %3, align 8, !tbaa !68
  %6 = call i64 @gtk_toggle_button_get_type() #11
  %7 = call ptr @g_type_check_instance_cast(ptr noundef %5, i64 noundef %6)
  %8 = call i32 @gtk_toggle_button_get_active(ptr noundef %7)
  %9 = load ptr, ptr getelementptr inbounds nuw (%struct.darktable_t, ptr @darktable, i32 0, i32 14), align 8, !tbaa !60
  %10 = getelementptr inbounds nuw %struct.dt_gui_gtk_t, ptr %9, i32 0, i32 8
  store i32 %8, ptr %10, align 4, !tbaa !61
  %11 = load ptr, ptr getelementptr inbounds nuw (%struct.darktable_t, ptr @darktable, i32 0, i32 14), align 8, !tbaa !60
  %12 = getelementptr inbounds nuw %struct.dt_gui_gtk_t, ptr %11, i32 0, i32 8
  %13 = load i32, ptr %12, align 4, !tbaa !61
  %14 = icmp ne i32 %13, 0
  br i1 %14, label %15, label %18

15:                                               ; preds = %2
  %16 = load ptr, ptr %3, align 8, !tbaa !68
  %17 = call ptr @dcgettext(ptr noundef null, ptr noundef @.str.2, i32 noundef 5) #9
  call void @gtk_widget_set_tooltip_text(ptr noundef %16, ptr noundef %17)
  br label %21

18:                                               ; preds = %2
  %19 = load ptr, ptr %3, align 8, !tbaa !68
  %20 = call ptr @dcgettext(ptr noundef null, ptr noundef @.str.3, i32 noundef 5) #9
  call void @gtk_widget_set_tooltip_text(ptr noundef %19, ptr noundef %20)
  br label %21

21:                                               ; preds = %18, %15
  %22 = load ptr, ptr getelementptr inbounds nuw (%struct.darktable_t, ptr @darktable, i32 0, i32 14), align 8, !tbaa !60
  %23 = getelementptr inbounds nuw %struct.dt_gui_gtk_t, ptr %22, i32 0, i32 8
  %24 = load i32, ptr %23, align 4, !tbaa !61
  call void @dt_conf_set_bool(ptr noundef @.str.44, i32 noundef %24)
  %25 = load ptr, ptr getelementptr inbounds nuw (%struct.darktable_t, ptr @darktable, i32 0, i32 14), align 8, !tbaa !60
  %26 = getelementptr inbounds nuw %struct.dt_gui_gtk_t, ptr %25, i32 0, i32 9
  store i32 0, ptr %26, align 8, !tbaa !94
  %27 = load ptr, ptr getelementptr inbounds nuw (%struct.darktable_t, ptr @darktable, i32 0, i32 21), align 8, !tbaa !95
  call void @dt_collection_update_query(ptr noundef %27, i32 noundef 3, i32 noundef 43, ptr noundef null)
  ret void
}