; Function Attrs: nounwind uwtable
define internal void @_lib_filter_grouping_button_clicked(ptr noundef %0, ptr readnone captures(none) %1) #1 {
  %3 = tail call i64 @gtk_toggle_button_get_type() #12
  %4 = tail call ptr @g_type_check_instance_cast(ptr noundef %0, i64 noundef %3) #10
  %5 = tail call i32 @gtk_toggle_button_get_active(ptr noundef %4) #10
  %6 = load ptr, ptr getelementptr inbounds nuw (i8, ptr @darktable, i64 104), align 8, !tbaa !56
  %7 = getelementptr inbounds nuw i8, ptr %6, i64 1356
  store i32 %5, ptr %7, align 4, !tbaa !57
  %.not = icmp eq i32 %5, 0
  %.str.3..str.2 = select i1 %.not, ptr @.str.3, ptr @.str.2
  %8 = tail call ptr @dcgettext(ptr noundef null, ptr noundef nonnull %.str.3..str.2, i32 noundef 5) #10
  tail call void @gtk_widget_set_tooltip_text(ptr noundef %0, ptr noundef %8) #10
  %9 = load ptr, ptr getelementptr inbounds nuw (i8, ptr @darktable, i64 104), align 8, !tbaa !56
  %10 = getelementptr inbounds nuw i8, ptr %9, i64 1356
  %11 = load i32, ptr %10, align 4, !tbaa !57
  tail call void @dt_conf_set_bool(ptr noundef nonnull @.str.44, i32 noundef %11) #10
  %12 = load ptr, ptr getelementptr inbounds nuw (i8, ptr @darktable, i64 104), align 8, !tbaa !56
  %13 = getelementptr inbounds nuw i8, ptr %12, i64 1360
  store i32 0, ptr %13, align 8, !tbaa !89
  %14 = load ptr, ptr getelementptr inbounds nuw (i8, ptr @darktable, i64 160), align 8, !tbaa !90
  tail call void @dt_collection_update_query(ptr noundef %14, i32 noundef 3, i32 noundef 43, ptr noundef null) #10
  ret void
}